EXPORTS
	??1TMSClientSource@TMS@@UAE@XZ @ 1 NONAME ; TMS::TMSClientSource::~TMSClientSource(void)
	?GetType@TMSMicSource@TMS@@UAEHAAH@Z @ 2 NONAME ; int TMS::TMSMicSource::GetType(int &)
	?GetMaxLevel@TMSGainEffect@TMS@@QAEHAAI@Z @ 3 NONAME ; int TMS::TMSGainEffect::GetMaxLevel(unsigned int &)
	?DeleteStream@TMSCall@TMS@@QAEHAAPAVTMSStream@2@@Z @ 4 NONAME ; int TMS::TMSCall::DeleteStream(class TMS::TMSStream * &)
	?SetCNG@TMSILBCFormat@TMS@@QAEHH@Z @ 5 NONAME ; int TMS::TMSILBCFormat::SetCNG(int)
	?GetMode@TMSILBCFormat@TMS@@QAEHAAH@Z @ 6 NONAME ; int TMS::TMSILBCFormat::GetMode(int &)
	?GetCNG@TMSG711Format@TMS@@QAEHAAH@Z @ 7 NONAME ; int TMS::TMSG711Format::GetCNG(int &)
	?GetLevel@TMSGlobalVolEffect@TMS@@QAEHAAI@Z @ 8 NONAME ; int TMS::TMSGlobalVolEffect::GetLevel(unsigned int &)
	?Deinit@TMSStream@TMS@@QAEXXZ @ 9 NONAME ; void TMS::TMSStream::Deinit(void)
	??0TMSMicSource@TMS@@IAE@XZ @ 10 NONAME ; TMS::TMSMicSource::TMSMicSource(void)
	?Stop@TMSStream@TMS@@QAEHXZ @ 11 NONAME ; int TMS::TMSStream::Stop(void)
	?AddObserver@TMSGlobalVolEffect@TMS@@QAEHAAVTMSEffectObserver@2@PAX@Z @ 12 NONAME ; int TMS::TMSGlobalVolEffect::AddObserver(class TMS::TMSEffectObserver &, void *)
	?GetType@TMSSpeakerSink@TMS@@UAEHAAH@Z @ 13 NONAME ; int TMS::TMSSpeakerSink::GetType(int &)
	??1TMSPCMFormat@TMS@@UAE@XZ @ 14 NONAME ; TMS::TMSPCMFormat::~TMSPCMFormat(void)
	??1TMSStream@TMS@@QAE@XZ @ 15 NONAME ; TMS::TMSStream::~TMSStream(void)
	?Start@TMSStream@TMS@@QAEHXZ @ 16 NONAME ; int TMS::TMSStream::Start(void)
	?RemoveObserver@TMSGlobalGainEffect@TMS@@QAEHAAVTMSEffectObserver@2@@Z @ 17 NONAME ; int TMS::TMSGlobalGainEffect::RemoveObserver(class TMS::TMSEffectObserver &)
	?AddObserver@TMSGlobalRouting@TMS@@QAEHAAVTMSGlobalRoutingObserver@2@PAX@Z @ 18 NONAME ; int TMS::TMSGlobalRouting::AddObserver(class TMS::TMSGlobalRoutingObserver &, void *)
	?AddObserver@TMSClientSource@TMS@@QAEHAAVTMSClientSourceObserver@2@PAX@Z @ 19 NONAME ; int TMS::TMSClientSource::AddObserver(class TMS::TMSClientSourceObserver &, void *)
	??0TMSModemSink@TMS@@IAE@XZ @ 20 NONAME ; TMS::TMSModemSink::TMSModemSink(void)
	?RemoveSink@TMSStream@TMS@@QAEHPAVTMSSink@2@@Z @ 21 NONAME ; int TMS::TMSStream::RemoveSink(class TMS::TMSSink *)
	?RemoveObserver@TMSGainEffect@TMS@@QAEHAAVTMSEffectObserver@2@@Z @ 22 NONAME ; int TMS::TMSGainEffect::RemoveObserver(class TMS::TMSEffectObserver &)
	??0TMSModemSource@TMS@@IAE@XZ @ 23 NONAME ; TMS::TMSModemSource::TMSModemSource(void)
	??1TMSAMRFormat@TMS@@UAE@XZ @ 24 NONAME ; TMS::TMSAMRFormat::~TMSAMRFormat(void)
	?GetType@TMSClientSource@TMS@@UAEHAAH@Z @ 25 NONAME ; int TMS::TMSClientSource::GetType(int &)
	??0TMSClientSink@TMS@@IAE@XZ @ 26 NONAME ; TMS::TMSClientSink::TMSClientSink(void)
	??0TMSFormat@TMS@@IAE@XZ @ 27 NONAME ; TMS::TMSFormat::TMSFormat(void)
	?SetLevel@TMSVolumeEffect@TMS@@QAEHI@Z @ 28 NONAME ; int TMS::TMSVolumeEffect::SetLevel(unsigned int)
	??1TMSClientSink@TMS@@UAE@XZ @ 29 NONAME ; TMS::TMSClientSink::~TMSClientSink(void)
	?SetOutput@TMSGlobalRouting@TMS@@QAEHH@Z @ 30 NONAME ; int TMS::TMSGlobalRouting::SetOutput(int)
	?GetType@TMSVolumeEffect@TMS@@UAEHAAH@Z @ 31 NONAME ; int TMS::TMSVolumeEffect::GetType(int &)
	?AddEffect@TMSStream@TMS@@QAEHPAVTMSEffect@2@@Z @ 32 NONAME ; int TMS::TMSStream::AddEffect(class TMS::TMSEffect *)
	?GetType@TMSModemSink@TMS@@UAEHAAH@Z @ 33 NONAME ; int TMS::TMSModemSink::GetType(int &)
	?RemoveObserver@TMSGlobalRouting@TMS@@QAEHAAVTMSGlobalRoutingObserver@2@@Z @ 34 NONAME ; int TMS::TMSGlobalRouting::RemoveObserver(class TMS::TMSGlobalRoutingObserver &)
	?CreateStream@TMSCall@TMS@@QAEHHAAPAVTMSStream@2@@Z @ 35 NONAME ; int TMS::TMSCall::CreateStream(int, class TMS::TMSStream * &)
	?BufferFilled@TMSClientSource@TMS@@QAEHAAVTMSBuffer@2@@Z @ 36 NONAME ; int TMS::TMSClientSource::BufferFilled(class TMS::TMSBuffer &)
	?Pause@TMSStream@TMS@@QAEHXZ @ 37 NONAME ; int TMS::TMSStream::Pause(void)
	?GetType@TMSGainEffect@TMS@@UAEHAAH@Z @ 38 NONAME ; int TMS::TMSGainEffect::GetType(int &)
	?GetCNG@TMSILBCFormat@TMS@@QAEHAAH@Z @ 39 NONAME ; int TMS::TMSILBCFormat::GetCNG(int &)
	?SetBitRate@TMSFormat@TMS@@QAEHI@Z @ 40 NONAME ; int TMS::TMSFormat::SetBitRate(unsigned int)
	?SetLevel@TMSGlobalGainEffect@TMS@@QAEHI@Z @ 41 NONAME ; int TMS::TMSGlobalGainEffect::SetLevel(unsigned int)
	??0TMSGlobalRouting@TMS@@IAE@XZ @ 42 NONAME ; TMS::TMSGlobalRouting::TMSGlobalRouting(void)
	?AddObserver@TMSStream@TMS@@QAEHAAVTMSStreamObserver@2@PAX@Z @ 43 NONAME ; int TMS::TMSStream::AddObserver(class TMS::TMSStreamObserver &, void *)
	?GetLevel@TMSGainEffect@TMS@@QAEHAAI@Z @ 44 NONAME ; int TMS::TMSGainEffect::GetLevel(unsigned int &)
	??0TMSG729Format@TMS@@IAE@XZ @ 45 NONAME ; TMS::TMSG729Format::TMSG729Format(void)
	??0TMSPCMFormat@TMS@@IAE@XZ @ 46 NONAME ; TMS::TMSPCMFormat::TMSPCMFormat(void)
	??1TMSG729Format@TMS@@UAE@XZ @ 47 NONAME ; TMS::TMSG729Format::~TMSG729Format(void)
	?SetLevel@TMSGainEffect@TMS@@QAEHI@Z @ 48 NONAME ; int TMS::TMSGainEffect::SetLevel(unsigned int)
	?AddObserver@TMSGainEffect@TMS@@QAEHAAVTMSEffectObserver@2@PAX@Z @ 49 NONAME ; int TMS::TMSGainEffect::AddObserver(class TMS::TMSEffectObserver &, void *)
	?RemoveObserver@TMSVolumeEffect@TMS@@QAEHAAVTMSEffectObserver@2@@Z @ 50 NONAME ; int TMS::TMSVolumeEffect::RemoveObserver(class TMS::TMSEffectObserver &)
	?GetType@TMSGlobalVolEffect@TMS@@UAEHAAH@Z @ 51 NONAME ; int TMS::TMSGlobalVolEffect::GetType(int &)
	??1TMSSpeakerSink@TMS@@UAE@XZ @ 52 NONAME ; TMS::TMSSpeakerSink::~TMSSpeakerSink(void)
	?SetVADMode@TMSG729Format@TMS@@QAEHH@Z @ 53 NONAME ; int TMS::TMSG729Format::SetVADMode(int)
	?GetVADMode@TMSG729Format@TMS@@QAEHAAH@Z @ 54 NONAME ; int TMS::TMSG729Format::GetVADMode(int &)
	?GetPreviousOutput@TMSGlobalRouting@TMS@@QAEHAAH@Z @ 55 NONAME ; int TMS::TMSGlobalRouting::GetPreviousOutput(int &)
	?GetMaxLevel@TMSVolumeEffect@TMS@@QAEHAAI@Z @ 56 NONAME ; int TMS::TMSVolumeEffect::GetMaxLevel(unsigned int &)
	??0TMSCall@TMS@@IAE@XZ @ 57 NONAME ; TMS::TMSCall::TMSCall(void)
	?SetPlc@TMSG711Format@TMS@@QAEHH@Z @ 58 NONAME ; int TMS::TMSG711Format::SetPlc(int)
	?GetStreamType@TMSStream@TMS@@QAEHXZ @ 59 NONAME ; int TMS::TMSStream::GetStreamType(void)
	?AddSource@TMSStream@TMS@@QAEHPAVTMSSource@2@@Z @ 60 NONAME ; int TMS::TMSStream::AddSource(class TMS::TMSSource *)
	??0TMSAMRFormat@TMS@@IAE@XZ @ 61 NONAME ; TMS::TMSAMRFormat::TMSAMRFormat(void)
	?GetOutput@TMSGlobalRouting@TMS@@QAEHAAH@Z @ 62 NONAME ; int TMS::TMSGlobalRouting::GetOutput(int &)
	??0TMSGlobalVolEffect@TMS@@IAE@XZ @ 63 NONAME ; TMS::TMSGlobalVolEffect::TMSGlobalVolEffect(void)
	?SetVADMode@TMSG711Format@TMS@@QAEHH@Z @ 64 NONAME ; int TMS::TMSG711Format::SetVADMode(int)
	?GetType@TMSModemSource@TMS@@UAEHAAH@Z @ 65 NONAME ; int TMS::TMSModemSource::GetType(int &)
	??0TMSG711Format@TMS@@IAE@XZ @ 66 NONAME ; TMS::TMSG711Format::TMSG711Format(void)
	?GetStreamId@TMSStream@TMS@@QAEHXZ @ 67 NONAME ; int TMS::TMSStream::GetStreamId(void)
	?GetState@TMSStream@TMS@@QAEHXZ @ 68 NONAME ; int TMS::TMSStream::GetState(void)
	??0TMSVolumeEffect@TMS@@IAE@XZ @ 69 NONAME ; TMS::TMSVolumeEffect::TMSVolumeEffect(void)
	??1TMSG711Format@TMS@@UAE@XZ @ 70 NONAME ; TMS::TMSG711Format::~TMSG711Format(void)
	??1TMSGlobalVolEffect@TMS@@UAE@XZ @ 71 NONAME ; TMS::TMSGlobalVolEffect::~TMSGlobalVolEffect(void)
	?AddSink@TMSStream@TMS@@QAEHPAVTMSSink@2@@Z @ 72 NONAME ; int TMS::TMSStream::AddSink(class TMS::TMSSink *)
	?ResetFormat@TMSStream@TMS@@QAEHPAVTMSFormat@2@@Z @ 73 NONAME ; int TMS::TMSStream::ResetFormat(class TMS::TMSFormat *)
	?GetType@TMSClientSink@TMS@@UAEHAAH@Z @ 74 NONAME ; int TMS::TMSClientSink::GetType(int &)
	??1TMSGlobalGainEffect@TMS@@UAE@XZ @ 75 NONAME ; TMS::TMSGlobalGainEffect::~TMSGlobalGainEffect(void)
	?AddObserver@TMSVolumeEffect@TMS@@QAEHAAVTMSEffectObserver@2@PAX@Z @ 76 NONAME ; int TMS::TMSVolumeEffect::AddObserver(class TMS::TMSEffectObserver &, void *)
	?SetMode@TMSG711Format@TMS@@QAEHH@Z @ 77 NONAME ; int TMS::TMSG711Format::SetMode(int)
	?RemoveEffect@TMSStream@TMS@@QAEHPAVTMSEffect@2@@Z @ 78 NONAME ; int TMS::TMSStream::RemoveEffect(class TMS::TMSEffect *)
	?RemoveObserver@TMSClientSink@TMS@@QAEHAAVTMSClientSinkObserver@2@@Z @ 79 NONAME ; int TMS::TMSClientSink::RemoveObserver(class TMS::TMSClientSinkObserver &)
	?GetVADMode@TMSG711Format@TMS@@QAEHAAH@Z @ 80 NONAME ; int TMS::TMSG711Format::GetVADMode(int &)
	??1TMSGlobalRouting@TMS@@UAE@XZ @ 81 NONAME ; TMS::TMSGlobalRouting::~TMSGlobalRouting(void)
	??0TMSILBCFormat@TMS@@IAE@XZ @ 82 NONAME ; TMS::TMSILBCFormat::TMSILBCFormat(void)
	??1TMSCall@TMS@@UAE@XZ @ 83 NONAME ; TMS::TMSCall::~TMSCall(void)
	?GetPlc@TMSG711Format@TMS@@QAEHAAH@Z @ 84 NONAME ; int TMS::TMSG711Format::GetPlc(int &)
	??1TMSILBCFormat@TMS@@UAE@XZ @ 85 NONAME ; TMS::TMSILBCFormat::~TMSILBCFormat(void)
	?SetFormat@TMSStream@TMS@@QAEHPAVTMSFormat@2@@Z @ 86 NONAME ; int TMS::TMSStream::SetFormat(class TMS::TMSFormat *)
	?GetType@TMSGlobalGainEffect@TMS@@UAEHAAH@Z @ 87 NONAME ; int TMS::TMSGlobalGainEffect::GetType(int &)
	?GetLevel@TMSVolumeEffect@TMS@@QAEHAAI@Z @ 88 NONAME ; int TMS::TMSVolumeEffect::GetLevel(unsigned int &)
	??0TMSGainEffect@TMS@@IAE@XZ @ 89 NONAME ; TMS::TMSGainEffect::TMSGainEffect(void)
	?GetCallType@TMSCall@TMS@@QAEHXZ @ 90 NONAME ; int TMS::TMSCall::GetCallType(void)
	?GetType@TMSFormat@TMS@@UAEHAAH@Z @ 91 NONAME ; int TMS::TMSFormat::GetType(int &)
	?GetMaxLevel@TMSGlobalGainEffect@TMS@@QAEHAAI@Z @ 92 NONAME ; int TMS::TMSGlobalGainEffect::GetMaxLevel(unsigned int &)
	?SetCNG@TMSG711Format@TMS@@QAEHH@Z @ 93 NONAME ; int TMS::TMSG711Format::SetCNG(int)
	??1TMSGainEffect@TMS@@UAE@XZ @ 94 NONAME ; TMS::TMSGainEffect::~TMSGainEffect(void)
	?GetMaxLevel@TMSGlobalVolEffect@TMS@@QAEHAAI@Z @ 95 NONAME ; int TMS::TMSGlobalVolEffect::GetMaxLevel(unsigned int &)
	??0TMSClientSource@TMS@@IAE@XZ @ 96 NONAME ; TMS::TMSClientSource::TMSClientSource(void)
	??1TMSFormat@TMS@@UAE@XZ @ 97 NONAME ; TMS::TMSFormat::~TMSFormat(void)
	??1TMSModemSource@TMS@@UAE@XZ @ 98 NONAME ; TMS::TMSModemSource::~TMSModemSource(void)
	?GetAvailableOutputs@TMSGlobalRouting@TMS@@QAEHAAV?$vector@IV?$allocator@I@std@@@std@@@Z @ 99 NONAME ; int TMS::TMSGlobalRouting::GetAvailableOutputs(class std::vector<unsigned int, class std::allocator<unsigned int> > &)
	?GetBitRate@TMSFormat@TMS@@QAEHAAI@Z @ 100 NONAME ; int TMS::TMSFormat::GetBitRate(unsigned int &)
	?AddObserver@TMSClientSink@TMS@@QAEHAAVTMSClientSinkObserver@2@PAX@Z @ 101 NONAME ; int TMS::TMSClientSink::AddObserver(class TMS::TMSClientSinkObserver &, void *)
	?RemoveSource@TMSStream@TMS@@QAEHPAVTMSSource@2@@Z @ 102 NONAME ; int TMS::TMSStream::RemoveSource(class TMS::TMSSource *)
	??0TMSGlobalGainEffect@TMS@@IAE@XZ @ 103 NONAME ; TMS::TMSGlobalGainEffect::TMSGlobalGainEffect(void)
	?AddObserver@TMSGlobalGainEffect@TMS@@QAEHAAVTMSEffectObserver@2@PAX@Z @ 104 NONAME ; int TMS::TMSGlobalGainEffect::AddObserver(class TMS::TMSEffectObserver &, void *)
	?GetLevel@TMSGlobalGainEffect@TMS@@QAEHAAI@Z @ 105 NONAME ; int TMS::TMSGlobalGainEffect::GetLevel(unsigned int &)
	?SetLevel@TMSGlobalVolEffect@TMS@@QAEHI@Z @ 106 NONAME ; int TMS::TMSGlobalVolEffect::SetLevel(unsigned int)
	?RemoveObserver@TMSStream@TMS@@QAEHAAVTMSStreamObserver@2@@Z @ 107 NONAME ; int TMS::TMSStream::RemoveObserver(class TMS::TMSStreamObserver &)
	?RemoveObserver@TMSGlobalVolEffect@TMS@@QAEHAAVTMSEffectObserver@2@@Z @ 108 NONAME ; int TMS::TMSGlobalVolEffect::RemoveObserver(class TMS::TMSEffectObserver &)
	?GetMode@TMSG711Format@TMS@@QAEHAAH@Z @ 109 NONAME ; int TMS::TMSG711Format::GetMode(int &)
	??1TMSVolumeEffect@TMS@@UAE@XZ @ 110 NONAME ; TMS::TMSVolumeEffect::~TMSVolumeEffect(void)
	?SetEnqueueMode@TMSClientSource@TMS@@QAEHH@Z @ 111 NONAME ; int TMS::TMSClientSource::SetEnqueueMode(int)
	?SetVADMode@TMSILBCFormat@TMS@@QAEHH@Z @ 112 NONAME ; int TMS::TMSILBCFormat::SetVADMode(int)
	??1TMSMicSource@TMS@@UAE@XZ @ 113 NONAME ; TMS::TMSMicSource::~TMSMicSource(void)
	??0TMSStream@TMS@@IAE@XZ @ 114 NONAME ; TMS::TMSStream::TMSStream(void)
	?GetVADMode@TMSILBCFormat@TMS@@QAEHAAH@Z @ 115 NONAME ; int TMS::TMSILBCFormat::GetVADMode(int &)
	?BufferProcessed@TMSClientSink@TMS@@QAEHPAVTMSBuffer@2@@Z @ 116 NONAME ; int TMS::TMSClientSink::BufferProcessed(class TMS::TMSBuffer *)
	?GetCallContextId@TMSCall@TMS@@QAEHAAI@Z @ 117 NONAME ; int TMS::TMSCall::GetCallContextId(unsigned int &)
	?RemoveObserver@TMSClientSource@TMS@@QAEHAAVTMSClientSourceObserver@2@@Z @ 118 NONAME ; int TMS::TMSClientSource::RemoveObserver(class TMS::TMSClientSourceObserver &)
	??0TMSSpeakerSink@TMS@@IAE@XZ @ 119 NONAME ; TMS::TMSSpeakerSink::TMSSpeakerSink(void)
	?ProcessBuffer@TMSClientSource@TMS@@QAEHPAVTMSBuffer@2@@Z @ 120 NONAME ; int TMS::TMSClientSource::ProcessBuffer(class TMS::TMSBuffer *)
	?GetSupportedBitRates@TMSFormat@TMS@@QAEHAAV?$vector@IV?$allocator@I@std@@@std@@@Z @ 121 NONAME ; int TMS::TMSFormat::GetSupportedBitRates(class std::vector<unsigned int, class std::allocator<unsigned int> > &)
	?SetMode@TMSILBCFormat@TMS@@QAEHH@Z @ 122 NONAME ; int TMS::TMSILBCFormat::SetMode(int)
	?GetEnqueueMode@TMSClientSource@TMS@@QAEHAAH@Z @ 123 NONAME ; int TMS::TMSClientSource::GetEnqueueMode(int &)
	??1TMSModemSink@TMS@@UAE@XZ @ 124 NONAME ; TMS::TMSModemSink::~TMSModemSink(void)
	?Init@TMSStream@TMS@@QAEHXZ @ 125 NONAME ; int TMS::TMSStream::Init(void)
	?Flush@TMSClientSource@TMS@@QAEHXZ @ 126 NONAME ; int TMS::TMSClientSource::Flush(void)

