EXPORTS
	_ZN3TMS11TMSCallImpl6CreateEiRPNS_7TMSCallEj @ 1 NONAME
	_ZN3TMS11TMSSinkImpl6CreateEiRPNS_7TMSSinkE @ 2 NONAME
	_ZN3TMS11TMSSinkImpl6DeleteERPNS_7TMSSinkE @ 3 NONAME
	_ZN3TMS13TMSBufferImpl6CreateEijRPNS_9TMSBufferE @ 4 NONAME
	_ZN3TMS13TMSBufferImpl6DeleteERPNS_9TMSBufferE @ 5 NONAME
	_ZN3TMS13TMSEffectImpl6CreateEiRPNS_9TMSEffectE @ 6 NONAME
	_ZN3TMS13TMSEffectImpl6DeleteERPNS_9TMSEffectE @ 7 NONAME
	_ZN3TMS13TMSFormatImpl6CreateEiRPNS_9TMSFormatE @ 8 NONAME
	_ZN3TMS13TMSFormatImpl6DeleteERPNS_9TMSFormatE @ 9 NONAME
	_ZN3TMS13TMSSourceImpl6CreateEiRPNS_9TMSSourceE @ 10 NONAME
	_ZN3TMS13TMSSourceImpl6DeleteERPNS_9TMSSourceE @ 11 NONAME
	_ZN3TMS20TMSGlobalRoutingImpl6CreateERPNS_16TMSGlobalRoutingE @ 12 NONAME
	_ZN3TMS20TMSGlobalRoutingImpl6DeleteERPNS_16TMSGlobalRoutingE @ 13 NONAME
	_ZTIN3TMS11TMSCallImplE @ 14 NONAME
	_ZTIN3TMS12TMSMemBufferE @ 15 NONAME
	_ZTIN3TMS15TMSCallBodyImplE @ 16 NONAME
	_ZTIN3TMS16TMSAMRFormatImplE @ 17 NONAME
	_ZTIN3TMS16TMSMicSourceImplE @ 18 NONAME
	_ZTIN3TMS16TMSModemSinkImplE @ 19 NONAME
	_ZTIN3TMS16TMSPCMFormatImplE @ 20 NONAME
	_ZTIN3TMS17TMSCSCallBodyImplE @ 21 NONAME
	_ZTIN3TMS17TMSClientSinkImplE @ 22 NONAME
	_ZTIN3TMS17TMSFormatBodyImplE @ 23 NONAME
	_ZTIN3TMS17TMSG711FormatImplE @ 24 NONAME
	_ZTIN3TMS17TMSG729FormatImplE @ 25 NONAME
	_ZTIN3TMS17TMSGainEffectImplE @ 26 NONAME
	_ZTIN3TMS17TMSILBCFormatImplE @ 27 NONAME
	_ZTIN3TMS17TMSIPCallBodyImplE @ 28 NONAME
	_ZTIN3TMS17TMSStreamBodyImplE @ 29 NONAME
	_ZTIN3TMS18TMSModemSourceImplE @ 30 NONAME
	_ZTIN3TMS18TMSSpeakerSinkImplE @ 31 NONAME
	_ZTIN3TMS19TMSClientSourceImplE @ 32 NONAME
	_ZTIN3TMS19TMSVolumeEffectImplE @ 33 NONAME
	_ZTIN3TMS20TMSAMRFormatBodyImplE @ 34 NONAME
	_ZTIN3TMS20TMSGlobalRoutingImplE @ 35 NONAME
	_ZTIN3TMS20TMSMicSourceBodyImplE @ 36 NONAME
	_ZTIN3TMS20TMSModemSinkBodyImplE @ 37 NONAME
	_ZTIN3TMS20TMSPCMFormatBodyImplE @ 38 NONAME
	_ZTIN3TMS21TMSClientSinkBodyImplE @ 39 NONAME
	_ZTIN3TMS21TMSG711FormatBodyImplE @ 40 NONAME
	_ZTIN3TMS21TMSG729FormatBodyImplE @ 41 NONAME
	_ZTIN3TMS21TMSGainEffectBodyImplE @ 42 NONAME
	_ZTIN3TMS21TMSILBCFormatBodyImplE @ 43 NONAME
	_ZTIN3TMS22TMSGlobalVolEffectImplE @ 44 NONAME
	_ZTIN3TMS22TMSModemSourceBodyImplE @ 45 NONAME
	_ZTIN3TMS22TMSSpeakerSinkBodyImplE @ 46 NONAME
	_ZTIN3TMS23TMSClientSourceBodyImplE @ 47 NONAME
	_ZTIN3TMS23TMSGlobalGainEffectImplE @ 48 NONAME
	_ZTIN3TMS23TMSVolumeEffectBodyImplE @ 49 NONAME
	_ZTIN3TMS24TMSGlobalRoutingBodyImplE @ 50 NONAME
	_ZTIN3TMS26TMSGlobalVolEffectBodyImplE @ 51 NONAME
	_ZTIN3TMS27TMSGlobalGainEffectBodyImplE @ 52 NONAME
	_ZTVN3TMS11TMSCallImplE @ 53 NONAME
	_ZTVN3TMS12TMSMemBufferE @ 54 NONAME
	_ZTVN3TMS15TMSCallBodyImplE @ 55 NONAME
	_ZTVN3TMS16TMSAMRFormatImplE @ 56 NONAME
	_ZTVN3TMS16TMSMicSourceImplE @ 57 NONAME
	_ZTVN3TMS16TMSModemSinkImplE @ 58 NONAME
	_ZTVN3TMS16TMSPCMFormatImplE @ 59 NONAME
	_ZTVN3TMS17TMSCSCallBodyImplE @ 60 NONAME
	_ZTVN3TMS17TMSClientSinkImplE @ 61 NONAME
	_ZTVN3TMS17TMSFormatBodyImplE @ 62 NONAME
	_ZTVN3TMS17TMSG711FormatImplE @ 63 NONAME
	_ZTVN3TMS17TMSG729FormatImplE @ 64 NONAME
	_ZTVN3TMS17TMSGainEffectImplE @ 65 NONAME
	_ZTVN3TMS17TMSILBCFormatImplE @ 66 NONAME
	_ZTVN3TMS17TMSIPCallBodyImplE @ 67 NONAME
	_ZTVN3TMS17TMSStreamBodyImplE @ 68 NONAME
	_ZTVN3TMS18TMSModemSourceImplE @ 69 NONAME
	_ZTVN3TMS18TMSSpeakerSinkImplE @ 70 NONAME
	_ZTVN3TMS19TMSClientSourceImplE @ 71 NONAME
	_ZTVN3TMS19TMSVolumeEffectImplE @ 72 NONAME
	_ZTVN3TMS20TMSAMRFormatBodyImplE @ 73 NONAME
	_ZTVN3TMS20TMSGlobalRoutingImplE @ 74 NONAME
	_ZTVN3TMS20TMSMicSourceBodyImplE @ 75 NONAME
	_ZTVN3TMS20TMSModemSinkBodyImplE @ 76 NONAME
	_ZTVN3TMS20TMSPCMFormatBodyImplE @ 77 NONAME
	_ZTVN3TMS21TMSClientSinkBodyImplE @ 78 NONAME
	_ZTVN3TMS21TMSG711FormatBodyImplE @ 79 NONAME
	_ZTVN3TMS21TMSG729FormatBodyImplE @ 80 NONAME
	_ZTVN3TMS21TMSGainEffectBodyImplE @ 81 NONAME
	_ZTVN3TMS21TMSILBCFormatBodyImplE @ 82 NONAME
	_ZTVN3TMS22TMSGlobalVolEffectImplE @ 83 NONAME
	_ZTVN3TMS22TMSModemSourceBodyImplE @ 84 NONAME
	_ZTVN3TMS22TMSSpeakerSinkBodyImplE @ 85 NONAME
	_ZTVN3TMS23TMSClientSourceBodyImplE @ 86 NONAME
	_ZTVN3TMS23TMSGlobalGainEffectImplE @ 87 NONAME
	_ZTVN3TMS23TMSVolumeEffectBodyImplE @ 88 NONAME
	_ZTVN3TMS24TMSGlobalRoutingBodyImplE @ 89 NONAME
	_ZTVN3TMS26TMSGlobalVolEffectBodyImplE @ 90 NONAME
	_ZTVN3TMS27TMSGlobalGainEffectBodyImplE @ 91 NONAME

