EXPORTS
	?SetMsgQueueNotifier@TMSProxy@TMS@@QAEHW4TMSMsgQueueNotifierType@2@PAX1H@Z @ 1 NONAME ; int TMS::TMSProxy::SetMsgQueueNotifier(enum TMS::TMSMsgQueueNotifierType, void *, void *, int)
	?RemoveMsgQueueNotifier@TMSProxy@TMS@@QAEHW4TMSMsgQueueNotifierType@2@PAX@Z @ 2 NONAME ; int TMS::TMSProxy::RemoveMsgQueueNotifier(enum TMS::TMSMsgQueueNotifierType, void *)
	?GetMaxLevel@TMSProxy@TMS@@QAEHAAI@Z @ 3 NONAME ; int TMS::TMSProxy::GetMaxLevel(unsigned int &)
	?StartRoutingNotifier@TMSProxy@TMS@@QAEHXZ @ 4 NONAME ; int TMS::TMSProxy::StartRoutingNotifier(void)
	?GetAvailableOutputs@TMSProxy@TMS@@QAEHAAV?$vector@IV?$allocator@I@std@@@std@@@Z @ 5 NONAME ; int TMS::TMSProxy::GetAvailableOutputs(class std::vector<unsigned int, class std::allocator<unsigned int> > &)
	?GetSupportedDecoders@TMSProxy@TMS@@QAEHAAV?$RArray@K@@AAH@Z @ 6 NONAME ; int TMS::TMSProxy::GetSupportedDecoders(class RArray<unsigned long> &, int &)
	?Connect@TMSProxy@TMS@@QAEHXZ @ 7 NONAME ; int TMS::TMSProxy::Connect(void)
	?SetLevel@TMSProxy@TMS@@QAEHI@Z @ 8 NONAME ; int TMS::TMSProxy::SetLevel(unsigned int)
	?CancelRoutingNotifier@TMSProxy@TMS@@QAEHXZ @ 9 NONAME ; int TMS::TMSProxy::CancelRoutingNotifier(void)
	?GetGain@TMSProxy@TMS@@QAEHAAI@Z @ 10 NONAME ; int TMS::TMSProxy::GetGain(unsigned int &)
	?SetGain@TMSProxy@TMS@@QAEHI@Z @ 11 NONAME ; int TMS::TMSProxy::SetGain(unsigned int)
	?GetLevel@TMSProxy@TMS@@QAEHAAI@Z @ 12 NONAME ; int TMS::TMSProxy::GetLevel(unsigned int &)
	?GetPreviousOutput@TMSProxy@TMS@@QAEHAAH@Z @ 13 NONAME ; int TMS::TMSProxy::GetPreviousOutput(int &)
	?Version@TMSProxy@TMS@@QBE?AVTVersion@@XZ @ 14 NONAME ; class TVersion TMS::TMSProxy::Version(void) const
	?Close@TMSProxy@TMS@@QAEXXZ @ 15 NONAME ; void TMS::TMSProxy::Close(void)
	?GetTMSCallSessionHandle@TMSProxy@TMS@@QAEHXZ @ 16 NONAME ; int TMS::TMSProxy::GetTMSCallSessionHandle(void)
	??0TMSProxy@TMS@@QAE@XZ @ 17 NONAME ; TMS::TMSProxy::TMSProxy(void)
	?GetSupportedEncoders@TMSProxy@TMS@@QAEHAAV?$RArray@K@@AAH@Z @ 18 NONAME ; int TMS::TMSProxy::GetSupportedEncoders(class RArray<unsigned long> &, int &)
	?SetOutput@TMSProxy@TMS@@QAEHH@Z @ 19 NONAME ; int TMS::TMSProxy::SetOutput(int)
	?CancelGlobalEffectNotifier@TMSProxy@TMS@@QAEHXZ @ 20 NONAME ; int TMS::TMSProxy::CancelGlobalEffectNotifier(void)
	?GetMaxGain@TMSProxy@TMS@@QAEHAAI@Z @ 21 NONAME ; int TMS::TMSProxy::GetMaxGain(unsigned int &)
	?StartGlobalEffectNotifier@TMSProxy@TMS@@QAEHXZ @ 22 NONAME ; int TMS::TMSProxy::StartGlobalEffectNotifier(void)
	?GetOutput@TMSProxy@TMS@@QAEHAAH@Z @ 23 NONAME ; int TMS::TMSProxy::GetOutput(int &)
	??1TMSProxy@TMS@@UAE@XZ @ 24 NONAME ; TMS::TMSProxy::~TMSProxy(void)

