EXPORTS
	?GetVolume@TMSCallProxy@TMS@@QAEHAAI@Z @ 1 NONAME ; int TMS::TMSCallProxy::GetVolume(unsigned int &)
	?StartStream@TMSCallProxy@TMS@@QAEHHHH@Z @ 2 NONAME ; int TMS::TMSCallProxy::StartStream(int, int, int)
	?SetCNG@TMSCallProxy@TMS@@QAEHHH@Z @ 3 NONAME ; int TMS::TMSCallProxy::SetCNG(int, int)
	?BufferFilled@TMSCallProxy@TMS@@QAEHHHHAAVTMSBuffer@2@@Z @ 4 NONAME ; int TMS::TMSCallProxy::BufferFilled(int, int, int, class TMS::TMSBuffer &)
	?CreateStream@TMSCallProxy@TMS@@QAEHHHAAH@Z @ 5 NONAME ; int TMS::TMSCallProxy::CreateStream(int, int, int &)
	?GetSupportedBitRates@TMSCallProxy@TMS@@QAEHAAV?$vector@IV?$allocator@I@std@@@std@@@Z @ 6 NONAME ; int TMS::TMSCallProxy::GetSupportedBitRates(class std::vector<unsigned int, class std::allocator<unsigned int> > &)
	?Close@TMSCallProxy@TMS@@QAEXXZ @ 7 NONAME ; void TMS::TMSCallProxy::Close(void)
	?InitStream@TMSCallProxy@TMS@@QAEHHHHHPAVRHandleBase@@@Z @ 8 NONAME ; int TMS::TMSCallProxy::InitStream(int, int, int, int, class RHandleBase *)
	?GetCNG@TMSCallProxy@TMS@@QAEHHAAH@Z @ 9 NONAME ; int TMS::TMSCallProxy::GetCNG(int, int &)
	?GetMaxVolume@TMSCallProxy@TMS@@QAEHAAI@Z @ 10 NONAME ; int TMS::TMSCallProxy::GetMaxVolume(unsigned int &)
	?GetVADMode@TMSCallProxy@TMS@@QAEHHAAH@Z @ 11 NONAME ; int TMS::TMSCallProxy::GetVADMode(int, int &)
	?PauseStream@TMSCallProxy@TMS@@QAEHHHH@Z @ 12 NONAME ; int TMS::TMSCallProxy::PauseStream(int, int, int)
	?GetBitRate@TMSCallProxy@TMS@@QAEHAAI@Z @ 13 NONAME ; int TMS::TMSCallProxy::GetBitRate(unsigned int &)
	?SetFormatCodecMode@TMSCallProxy@TMS@@QAEHHHH@Z @ 14 NONAME ; int TMS::TMSCallProxy::SetFormatCodecMode(int, int, int)
	?GetPlc@TMSCallProxy@TMS@@QAEHHAAH@Z @ 15 NONAME ; int TMS::TMSCallProxy::GetPlc(int, int &)
	?StopStream@TMSCallProxy@TMS@@QAEHHHH@Z @ 16 NONAME ; int TMS::TMSCallProxy::StopStream(int, int, int)
	?SetVolume@TMSCallProxy@TMS@@QAEHI@Z @ 17 NONAME ; int TMS::TMSCallProxy::SetVolume(unsigned int)
	?GetGain@TMSCallProxy@TMS@@QAEHAAI@Z @ 18 NONAME ; int TMS::TMSCallProxy::GetGain(unsigned int &)
	?SetPlc@TMSCallProxy@TMS@@QAEHHH@Z @ 19 NONAME ; int TMS::TMSCallProxy::SetPlc(int, int)
	??1TMSCallProxy@TMS@@UAE@XZ @ 20 NONAME ; TMS::TMSCallProxy::~TMSCallProxy(void)
	?GetMaxGain@TMSCallProxy@TMS@@QAEHAAI@Z @ 21 NONAME ; int TMS::TMSCallProxy::GetMaxGain(unsigned int &)
	?CreateCall@TMSCallProxy@TMS@@QAEHH@Z @ 22 NONAME ; int TMS::TMSCallProxy::CreateCall(int)
	?SetVADMode@TMSCallProxy@TMS@@QAEHHH@Z @ 23 NONAME ; int TMS::TMSCallProxy::SetVADMode(int, int)
	?DeleteCall@TMSCallProxy@TMS@@QAEXXZ @ 24 NONAME ; void TMS::TMSCallProxy::DeleteCall(void)
	?GetDataXferChunkHandle@TMSCallProxy@TMS@@QAEHHHHI@Z @ 25 NONAME ; int TMS::TMSCallProxy::GetDataXferChunkHandle(int, int, int, unsigned int)
	?DeleteStream@TMSCallProxy@TMS@@QAEHHHAAH@Z @ 26 NONAME ; int TMS::TMSCallProxy::DeleteStream(int, int, int &)
	??0TMSCallProxy@TMS@@QAE@XZ @ 27 NONAME ; TMS::TMSCallProxy::TMSCallProxy(void)
	?BufferEmptied@TMSCallProxy@TMS@@QAEHHHHAAVTMSBuffer@2@@Z @ 28 NONAME ; int TMS::TMSCallProxy::BufferEmptied(int, int, int, class TMS::TMSBuffer &)
	?Connect@TMSCallProxy@TMS@@QAEHXZ @ 29 NONAME ; int TMS::TMSCallProxy::Connect(void)
	?SetGain@TMSCallProxy@TMS@@QAEHI@Z @ 30 NONAME ; int TMS::TMSCallProxy::SetGain(unsigned int)
	?SetBitRate@TMSCallProxy@TMS@@QAEHI@Z @ 31 NONAME ; int TMS::TMSCallProxy::SetBitRate(unsigned int)
	?GetFormatCodecMode@TMSCallProxy@TMS@@QAEHHHAAH@Z @ 32 NONAME ; int TMS::TMSCallProxy::GetFormatCodecMode(int, int, int &)
	?DeinitStream@TMSCallProxy@TMS@@QAEHHHH@Z @ 33 NONAME ; int TMS::TMSCallProxy::DeinitStream(int, int, int)

